; Function Attrs: mustprogress uwtable
define hidden void @_ZN2cv3dls11LeftMultVecERKNS_3MatE(ptr dead_on_unwind noalias writable sret(%"class.cv::Mat") align 8 %0, ptr nonnull readnone align 8 captures(none) %1, ptr noundef nonnull readonly align 8 captures(none) dereferenceable(96) %2) local_unnamed_addr #3 align 2 personality ptr @__gxx_personality_v0 {
  %4 = alloca %"class.cv::MatExpr", align 8
  call void @llvm.lifetime.start.p0(i64 352, ptr nonnull %4) #22
  call void @_ZN2cv3Mat5zerosEiii(ptr dead_on_unwind nonnull writable sret(%"class.cv::MatExpr") align 8 %4, i32 noundef 3, i32 noundef 9, i32 noundef 6)
  call void @_ZN2cv3MatC1Ev(ptr noundef nonnull align 8 dereferenceable(96) %0) #22
  %5 = load ptr, ptr %4, align 8, !tbaa !28, !noalias !315
  %6 = load ptr, ptr %5, align 8, !tbaa !34
  %7 = getelementptr inbounds nuw i8, ptr %6, i64 24
  %8 = load ptr, ptr %7, align 8
  invoke void %8(ptr noundef nonnull align 8 dereferenceable(8) %5, ptr noundef nonnull align 8 dereferenceable(352) %4, ptr noundef nonnull align 8 dereferenceable(96) %0, i32 noundef -1)
          to label %_ZNK2cv7MatExprcvNS_3MatEEv.exit unwind label %.body

.body:                                            ; preds = %3
  %9 = landingpad { ptr, i32 }
          cleanup
  call void @_ZN2cv3MatD1Ev(ptr noundef nonnull align 8 dereferenceable(96) %0) #22
  call void @_ZN2cv7MatExprD2Ev(ptr noundef nonnull align 8 dereferenceable(352) %4) #22
  call void @llvm.lifetime.end.p0(i64 352, ptr nonnull %4) #22
  resume { ptr, i32 } %9

_ZNK2cv7MatExprcvNS_3MatEEv.exit:                 ; preds = %3
  %10 = getelementptr inbounds nuw i8, ptr %4, i64 208
  call void @_ZN2cv3MatD1Ev(ptr noundef nonnull align 8 dereferenceable(96) %10) #22
  %11 = getelementptr inbounds nuw i8, ptr %4, i64 112
  call void @_ZN2cv3MatD1Ev(ptr noundef nonnull align 8 dereferenceable(96) %11) #22
  %12 = getelementptr inbounds nuw i8, ptr %4, i64 16
  call void @_ZN2cv3MatD1Ev(ptr noundef nonnull align 8 dereferenceable(96) %12) #22
  call void @llvm.lifetime.end.p0(i64 352, ptr nonnull %4) #22
  %13 = load i32, ptr %2, align 8, !tbaa !39
  %14 = and i32 %13, 16384
  %.not.i = icmp eq i32 %14, 0
  %.0.i.in = getelementptr inbounds nuw i8, ptr %2, i64 16
  %.0.i = load ptr, ptr %.0.i.in, align 8, !tbaa !44
  %15 = getelementptr inbounds nuw i8, ptr %0, i64 16
  %16 = load ptr, ptr %15, align 8, !tbaa !44
  %17 = getelementptr inbounds nuw i8, ptr %0, i64 72
  %18 = load ptr, ptr %17, align 8, !tbaa !46
  %19 = load i64, ptr %18, align 8, !tbaa !40
  %20 = getelementptr inbounds nuw i8, ptr %.0.i, i64 8
  %21 = getelementptr inbounds nuw i8, ptr %2, i64 64
  %22 = load ptr, ptr %21, align 8
  %23 = getelementptr inbounds nuw i8, ptr %22, i64 4
  %24 = getelementptr inbounds nuw i8, ptr %2, i64 12
  %25 = load i32, ptr %24, align 4
  %.fr = freeze i32 %25
  %26 = add i32 %.fr, 1
  %27 = icmp ult i32 %26, 3
  %28 = select i1 %27, i32 %.fr, i32 0
  %29 = mul nsw i32 %28, %.fr
  %30 = sub nsw i32 1, %29
  %31 = getelementptr inbounds nuw i8, ptr %2, i64 72
  %32 = load ptr, ptr %31, align 8
  %33 = sext i32 %28 to i64
  %34 = sext i32 %30 to i64
  %invariant.gep = getelementptr double, ptr %.0.i, i64 %34
  %35 = getelementptr inbounds nuw i8, ptr %.0.i, i64 16
  br i1 %.not.i, label %_ZNK2cv7MatExprcvNS_3MatEEv.exit.split.us, label %_ZNK2cv3Mat2atIdEERKT_i.exit

_ZNK2cv7MatExprcvNS_3MatEEv.exit.split.us:        ; preds = %_ZNK2cv7MatExprcvNS_3MatEEv.exit
  %36 = load i32, ptr %22, align 4, !tbaa !43
  %37 = icmp eq i32 %36, 1
  br i1 %37, label %_ZNK2cv3Mat2atIdEERKT_i.exit.us.us.us, label %_ZNK2cv7MatExprcvNS_3MatEEv.exit.split.us.split.split

_ZNK2cv3Mat2atIdEERKT_i.exit.us.us.us:            ; preds = %_ZNK2cv7MatExprcvNS_3MatEEv.exit.split.us, %_ZNK2cv3Mat2atIdEERKT_i.exit.us.us.us
  %indvars.iv75 = phi i64 [ %indvars.iv.next76, %_ZNK2cv3Mat2atIdEERKT_i.exit.us.us.us ], [ 0, %_ZNK2cv7MatExprcvNS_3MatEEv.exit.split.us ]
  %38 = load double, ptr %.0.i, align 8, !tbaa !45
  %39 = mul i64 %19, %indvars.iv75
  %40 = getelementptr inbounds nuw i8, ptr %16, i64 %39
  %.idx81 = mul nuw nsw i64 %indvars.iv75, 24
  %41 = getelementptr inbounds nuw i8, ptr %40, i64 %.idx81
  store double %38, ptr %41, align 8, !tbaa !45
  %42 = load double, ptr %20, align 8, !tbaa !45
  %43 = getelementptr inbounds nuw i8, ptr %41, i64 8
  store double %42, ptr %43, align 8, !tbaa !45
  %44 = load double, ptr %35, align 8, !tbaa !45
  %45 = getelementptr inbounds nuw i8, ptr %41, i64 16
  store double %44, ptr %45, align 8, !tbaa !45
  %indvars.iv.next76 = add nuw nsw i64 %indvars.iv75, 1
  %exitcond78.not = icmp eq i64 %indvars.iv.next76, 3
  br i1 %exitcond78.not, label %.split.us, label %_ZNK2cv3Mat2atIdEERKT_i.exit.us.us.us, !llvm.loop !318

_ZNK2cv7MatExprcvNS_3MatEEv.exit.split.us.split.split: ; preds = %_ZNK2cv7MatExprcvNS_3MatEEv.exit.split.us
  %46 = load i32, ptr %23, align 4, !tbaa !43
  %47 = icmp eq i32 %46, 1
  br i1 %47, label %_ZNK2cv7MatExprcvNS_3MatEEv.exit.split.us.split.split.split.us.split.us, label %_ZNK2cv7MatExprcvNS_3MatEEv.exit.split.us.split.split.split.split

_ZNK2cv7MatExprcvNS_3MatEEv.exit.split.us.split.split.split.us.split.us: ; preds = %_ZNK2cv7MatExprcvNS_3MatEEv.exit.split.us.split.split
  %48 = load i64, ptr %32, align 8, !tbaa !40
  %49 = shl i64 %48, 1
  %50 = getelementptr inbounds nuw i8, ptr %.0.i, i64 %49
  %51 = getelementptr inbounds nuw i8, ptr %.0.i, i64 %48
  br label %_ZNK2cv3Mat2atIdEERKT_i.exit.us.us27.us

_ZNK2cv3Mat2atIdEERKT_i.exit.us.us27.us:          ; preds = %_ZNK2cv3Mat2atIdEERKT_i.exit.us.us27.us, %_ZNK2cv7MatExprcvNS_3MatEEv.exit.split.us.split.split.split.us.split.us
  %indvars.iv59 = phi i64 [ %indvars.iv.next60, %_ZNK2cv3Mat2atIdEERKT_i.exit.us.us27.us ], [ 0, %_ZNK2cv7MatExprcvNS_3MatEEv.exit.split.us.split.split.split.us.split.us ]
  %52 = load double, ptr %.0.i, align 8, !tbaa !45
  %53 = mul i64 %19, %indvars.iv59
  %54 = getelementptr inbounds nuw i8, ptr %16, i64 %53
  %.idx80 = mul nuw nsw i64 %indvars.iv59, 24
  %55 = getelementptr inbounds nuw i8, ptr %54, i64 %.idx80
  store double %52, ptr %55, align 8, !tbaa !45
  %56 = load double, ptr %51, align 8, !tbaa !45
  %57 = getelementptr inbounds nuw i8, ptr %55, i64 8
  store double %56, ptr %57, align 8, !tbaa !45
  %58 = load double, ptr %50, align 8, !tbaa !45
  %59 = getelementptr inbounds nuw i8, ptr %55, i64 16
  store double %58, ptr %59, align 8, !tbaa !45
  %indvars.iv.next60 = add nuw nsw i64 %indvars.iv59, 1
  %exitcond62.not = icmp eq i64 %indvars.iv.next60, 3
  br i1 %exitcond62.not, label %.split.us, label %_ZNK2cv3Mat2atIdEERKT_i.exit.us.us27.us, !llvm.loop !318

_ZNK2cv7MatExprcvNS_3MatEEv.exit.split.us.split.split.split.split: ; preds = %_ZNK2cv7MatExprcvNS_3MatEEv.exit.split.us.split.split
  %60 = sdiv i32 2, %.fr
  %61 = mul nsw i32 %60, %.fr
  %.recomposed = srem i32 2, %.fr
  %62 = load i64, ptr %32, align 8, !tbaa !40
  %63 = sext i32 %60 to i64
  %64 = mul i64 %62, %63
  %65 = getelementptr inbounds nuw i8, ptr %.0.i, i64 %64
  %66 = sext i32 %.recomposed to i64
  %67 = getelementptr inbounds double, ptr %65, i64 %66
  %68 = mul i64 %62, %33
  %gep.us = getelementptr i8, ptr %invariant.gep, i64 %68
  br label %_ZNK2cv3Mat2atIdEERKT_i.exit.us

_ZNK2cv3Mat2atIdEERKT_i.exit.us:                  ; preds = %_ZNK2cv3Mat2atIdEERKT_i.exit.us, %_ZNK2cv7MatExprcvNS_3MatEEv.exit.split.us.split.split.split.split
  %indvars.iv47 = phi i64 [ %indvars.iv.next48, %_ZNK2cv3Mat2atIdEERKT_i.exit.us ], [ 0, %_ZNK2cv7MatExprcvNS_3MatEEv.exit.split.us.split.split.split.split ]
  %69 = load double, ptr %.0.i, align 8, !tbaa !45
  %70 = mul i64 %19, %indvars.iv47
  %71 = getelementptr inbounds nuw i8, ptr %16, i64 %70
  %.idx79 = mul nuw nsw i64 %indvars.iv47, 24
  %72 = getelementptr inbounds nuw i8, ptr %71, i64 %.idx79
  store double %69, ptr %72, align 8, !tbaa !45
  %73 = load double, ptr %gep.us, align 8, !tbaa !45
  %74 = getelementptr inbounds nuw i8, ptr %72, i64 8
  store double %73, ptr %74, align 8, !tbaa !45
  %75 = load double, ptr %67, align 8, !tbaa !45
  %76 = getelementptr inbounds nuw i8, ptr %72, i64 16
  store double %75, ptr %76, align 8, !tbaa !45
  %indvars.iv.next48 = add nuw nsw i64 %indvars.iv47, 1
  %exitcond50.not = icmp eq i64 %indvars.iv.next48, 3
  br i1 %exitcond50.not, label %.split.us, label %_ZNK2cv3Mat2atIdEERKT_i.exit.us, !llvm.loop !318

_ZNK2cv3Mat2atIdEERKT_i.exit:                     ; preds = %_ZNK2cv7MatExprcvNS_3MatEEv.exit, %_ZNK2cv3Mat2atIdEERKT_i.exit
  %indvars.iv = phi i64 [ %indvars.iv.next, %_ZNK2cv3Mat2atIdEERKT_i.exit ], [ 0, %_ZNK2cv7MatExprcvNS_3MatEEv.exit ]
  %77 = load double, ptr %.0.i, align 8, !tbaa !45
  %78 = mul i64 %19, %indvars.iv
  %79 = getelementptr inbounds nuw i8, ptr %16, i64 %78
  %.idx = mul nuw nsw i64 %indvars.iv, 24
  %80 = getelementptr inbounds nuw i8, ptr %79, i64 %.idx
  store double %77, ptr %80, align 8, !tbaa !45
  %81 = load double, ptr %20, align 8, !tbaa !45
  %82 = getelementptr inbounds nuw i8, ptr %80, i64 8
  store double %81, ptr %82, align 8, !tbaa !45
  %83 = load double, ptr %35, align 8, !tbaa !45
  %84 = getelementptr inbounds nuw i8, ptr %80, i64 16
  store double %83, ptr %84, align 8, !tbaa !45
  %indvars.iv.next = add nuw nsw i64 %indvars.iv, 1
  %exitcond.not = icmp eq i64 %indvars.iv.next, 3
  br i1 %exitcond.not, label %.split.us, label %_ZNK2cv3Mat2atIdEERKT_i.exit, !llvm.loop !318

.split.us:                                        ; preds = %_ZNK2cv3Mat2atIdEERKT_i.exit, %_ZNK2cv3Mat2atIdEERKT_i.exit.us, %_ZNK2cv3Mat2atIdEERKT_i.exit.us.us27.us, %_ZNK2cv3Mat2atIdEERKT_i.exit.us.us.us
  ret void
}